; Function Attrs: nounwind uwtable
define void @Saig_TsiStop(ptr noundef captures(none) %0) local_unnamed_addr #0 {
  %2 = getelementptr inbounds nuw i8, ptr %0, i64 48
  %3 = load ptr, ptr %2, align 8, !tbaa !36
  %.not = icmp eq ptr %3, null
  br i1 %.not, label %8, label %4

4:                                                ; preds = %1
  %5 = getelementptr inbounds nuw i8, ptr %3, i64 8
  %6 = load ptr, ptr %5, align 8, !tbaa !37
  %.not.i = icmp eq ptr %6, null
  br i1 %.not.i, label %Vec_IntFree.exit, label %7

7:                                                ; preds = %4
  tail call void @free(ptr noundef nonnull %6) #21
  br label %Vec_IntFree.exit

Vec_IntFree.exit:                                 ; preds = %4, %7
  tail call void @free(ptr noundef nonnull %3) #21
  br label %8

8:                                                ; preds = %Vec_IntFree.exit, %1
  %9 = getelementptr inbounds nuw i8, ptr %0, i64 24
  %10 = load ptr, ptr %9, align 8, !tbaa !30
  tail call void @Aig_MmFixedStop(ptr noundef %10, i32 noundef 0) #21
  %11 = getelementptr inbounds nuw i8, ptr %0, i64 16
  %12 = load ptr, ptr %11, align 8, !tbaa !29
  %13 = getelementptr inbounds nuw i8, ptr %12, i64 8
  %14 = load ptr, ptr %13, align 8, !tbaa !28
  %.not.i13 = icmp eq ptr %14, null
  br i1 %.not.i13, label %Vec_PtrFree.exit, label %15

15:                                               ; preds = %8
  tail call void @free(ptr noundef nonnull %14) #21
  br label %Vec_PtrFree.exit

Vec_PtrFree.exit:                                 ; preds = %8, %15
  tail call void @free(ptr noundef nonnull %12) #21
  %16 = getelementptr inbounds nuw i8, ptr %0, i64 56
  %17 = load ptr, ptr %16, align 8, !tbaa !35
  %.not11 = icmp eq ptr %17, null
  br i1 %.not11, label %19, label %18

18:                                               ; preds = %Vec_PtrFree.exit
  tail call void @free(ptr noundef nonnull %17) #21
  br label %19

19:                                               ; preds = %Vec_PtrFree.exit, %18
  tail call void @free(ptr noundef nonnull %0) #21
  ret void
}